; Function Attrs: mustprogress nofree norecurse nosync nounwind willreturn memory(read, argmem: readwrite, inaccessiblemem: none) uwtable
define internal fastcc i32 @decode_coeff(ptr noundef nonnull captures(none) %0, ptr noundef readonly captures(none) %1, i32 noundef range(i32 0, 256) %2, i32 noundef range(i32 2, 4) %3) unnamed_addr #8 {
  %.not = icmp eq i32 %2, %3
  br i1 %.not, label %23, label %5

5:                                                ; preds = %4
  %.not24 = icmp eq i32 %2, 0
  br i1 %.not24, label %100, label %6

6:                                                ; preds = %5
  %7 = getelementptr inbounds nuw i8, ptr %0, i64 16
  %8 = load i32, ptr %7, align 8, !tbaa !51
  %9 = load ptr, ptr %0, align 8, !tbaa !43
  %10 = lshr i32 %8, 3
  %11 = zext nneg i32 %10 to i64
  %12 = getelementptr inbounds nuw i8, ptr %9, i64 %11
  %13 = load i8, ptr %12, align 1, !tbaa !42
  %14 = getelementptr inbounds nuw i8, ptr %0, i64 24
  %15 = load i32, ptr %14, align 8, !tbaa !46
  %16 = icmp slt i32 %8, %15
  %17 = zext i1 %16 to i32
  %spec.select.i = add i32 %8, %17
  %18 = zext i8 %13 to i32
  %19 = and i32 %8, 7
  store i32 %spec.select.i, ptr %7, align 8, !tbaa !51
  %20 = lshr exact i32 128, %19
  %21 = and i32 %20, %18
  %.not25 = icmp eq i32 %21, 0
  %22 = sub nsw i32 0, %2
  %spec.select = select i1 %.not25, i32 %2, i32 %22
  br label %100

23:                                               ; preds = %4
  %24 = getelementptr inbounds nuw i8, ptr %1, i64 48
  %25 = load ptr, ptr %24, align 8, !tbaa !93
  %26 = getelementptr inbounds nuw i8, ptr %0, i64 16
  %27 = load i32, ptr %26, align 8, !tbaa !51
  %28 = getelementptr inbounds nuw i8, ptr %0, i64 24
  %29 = load i32, ptr %28, align 8, !tbaa !46
  %30 = load ptr, ptr %0, align 8, !tbaa !43
  %31 = lshr i32 %27, 3
  %32 = zext nneg i32 %31 to i64
  %33 = getelementptr inbounds nuw i8, ptr %30, i64 %32
  %34 = load i32, ptr %33, align 1, !tbaa !42
  %35 = tail call i32 @llvm.bswap.i32(i32 %34)
  %36 = and i32 %27, 7
  %37 = shl i32 %35, %36
  %38 = lshr i32 %37, 23
  %39 = zext nneg i32 %38 to i64
  %40 = getelementptr inbounds nuw %struct.VLCElem, ptr %25, i64 %39
  %41 = load i16, ptr %40, align 2, !tbaa !42
  %42 = sext i16 %41 to i32
  %43 = getelementptr inbounds nuw i8, ptr %40, i64 2
  %44 = load i16, ptr %43, align 2, !tbaa !42
  %45 = sext i16 %44 to i32
  %46 = icmp slt i16 %44, 0
  br i1 %46, label %47, label %get_vlc2.exit

47:                                               ; preds = %23
  %48 = add i32 %27, 9
  %49 = tail call i32 @llvm.umin.i32(i32 %29, i32 %48)
  %50 = lshr i32 %49, 3
  %51 = zext nneg i32 %50 to i64
  %52 = getelementptr inbounds nuw i8, ptr %30, i64 %51
  %53 = load i32, ptr %52, align 1, !tbaa !42
  %54 = tail call i32 @llvm.bswap.i32(i32 %53)
  %55 = and i32 %49, 7
  %56 = shl i32 %54, %55
  %57 = add nsw i32 %45, 32
  %58 = lshr i32 %56, %57
  %59 = add i32 %58, %42
  %60 = zext i32 %59 to i64
  %61 = getelementptr inbounds nuw %struct.VLCElem, ptr %25, i64 %60
  %62 = load i16, ptr %61, align 2, !tbaa !42
  %63 = sext i16 %62 to i32
  %64 = getelementptr inbounds nuw i8, ptr %61, i64 2
  %65 = load i16, ptr %64, align 2, !tbaa !42
  %66 = sext i16 %65 to i32
  br label %get_vlc2.exit

get_vlc2.exit:                                    ; preds = %23, %47
  %.064.i = phi i32 [ %49, %47 ], [ %27, %23 ]
  %.062.i = phi i32 [ %63, %47 ], [ %42, %23 ]
  %.0.i = phi i32 [ %66, %47 ], [ %45, %23 ]
  %67 = add i32 %.0.i, %.064.i
  %68 = tail call i32 @llvm.umin.i32(i32 %29, i32 %67)
  store i32 %68, ptr %26, align 8, !tbaa !51
  %69 = icmp sgt i32 %.062.i, 23
  br i1 %69, label %70, label %86

70:                                               ; preds = %get_vlc2.exit
  %71 = add nsw i32 %.062.i, -23
  %72 = shl nuw i32 1, %71
  %73 = lshr i32 %68, 3
  %74 = zext nneg i32 %73 to i64
  %75 = getelementptr inbounds nuw i8, ptr %30, i64 %74
  %76 = load i32, ptr %75, align 1, !tbaa !42
  %77 = tail call i32 @llvm.bswap.i32(i32 %76)
  %78 = and i32 %68, 7
  %79 = shl i32 %77, %78
  %80 = sub nsw i32 55, %.062.i
  %81 = lshr i32 %79, %80
  %82 = add i32 %68, %71
  %83 = tail call i32 @llvm.umin.i32(i32 %29, i32 %82)
  store i32 %83, ptr %26, align 8, !tbaa !51
  %84 = add nuw i32 %72, 22
  %85 = add i32 %84, %81
  br label %86

86:                                               ; preds = %get_vlc2.exit, %70
  %87 = phi i32 [ %83, %70 ], [ %68, %get_vlc2.exit ]
  %.pn = phi i32 [ %85, %70 ], [ %.062.i, %get_vlc2.exit ]
  %.019 = add i32 %.pn, %2
  %88 = lshr i32 %87, 3
  %89 = zext nneg i32 %88 to i64
  %90 = getelementptr inbounds nuw i8, ptr %30, i64 %89
  %91 = load i8, ptr %90, align 1, !tbaa !42
  %92 = icmp slt i32 %87, %29
  %93 = zext i1 %92 to i32
  %spec.select.i26 = add i32 %87, %93
  %94 = zext i8 %91 to i32
  %95 = and i32 %87, 7
  store i32 %spec.select.i26, ptr %26, align 8, !tbaa !51
  %96 = lshr exact i32 128, %95
  %97 = and i32 %96, %94
  %.not23 = icmp eq i32 %97, 0
  %98 = sub nsw i32 0, %.019
  %99 = select i1 %.not23, i32 %.019, i32 %98
  br label %100

100:                                              ; preds = %6, %5, %86
  %.0 = phi i32 [ %99, %86 ], [ 0, %5 ], [ %spec.select, %6 ]
  ret i32 %.0
}